; Function Attrs: nounwind sspstrong uwtable
define dso_local range(i64 1, -7) i64 @rb_io_taint_check(i64 noundef returned %0) local_unnamed_addr #0 {
  %2 = icmp eq i64 %0, 0
  %3 = and i64 %0, 7
  %4 = icmp ne i64 %3, 0
  %5 = or i1 %2, %4
  br i1 %5, label %RB_OBJ_FROZEN.exit.thread.i, label %RB_FL_ABLE.exit.i.i, !prof !24

RB_FL_ABLE.exit.i.i:                              ; preds = %1
  %6 = inttoptr i64 %0 to ptr
  %7 = load i64, ptr %6, align 8, !tbaa !25
  %8 = and i64 %7, 31
  %.not.i.i = icmp eq i64 %8, 27
  %9 = and i64 %7, 2048
  %10 = icmp ne i64 %9, 0
  %or.cond.i = or i1 %.not.i.i, %10
  br i1 %or.cond.i, label %RB_OBJ_FROZEN.exit.thread.i, label %rbimpl_RB_TYPE_P_fastpath.exit.i, !prof !27

RB_OBJ_FROZEN.exit.thread.i:                      ; preds = %RB_FL_ABLE.exit.i.i, %1
  tail call void @rb_error_frozen_object(i64 noundef %0) #30
  unreachable

rbimpl_RB_TYPE_P_fastpath.exit.i:                 ; preds = %RB_FL_ABLE.exit.i.i
  %11 = icmp ne i64 %8, 5
  %12 = and i64 %7, 49152
  %.not.i = icmp eq i64 %12, 0
  %or.cond8.i = or i1 %11, %.not.i
  br i1 %or.cond8.i, label %rb_check_frozen_inline.exit, label %13, !prof !28

13:                                               ; preds = %rbimpl_RB_TYPE_P_fastpath.exit.i
  tail call void @rb_str_modify(i64 noundef %0) #28
  br label %rb_check_frozen_inline.exit

rb_check_frozen_inline.exit:                      ; preds = %rbimpl_RB_TYPE_P_fastpath.exit.i, %13
  ret i64 %0
}